; ModuleID = 'source-C-CXX/15/1240.c'
source_filename = "source-C-CXX/15/1240.c"
target datalayout = "e-m:e-p270:32:32-p271:32:32-p272:64:64-i64:64-f80:128-n8:16:32:64-S128"
target triple = "x86_64-pc-linux-gnu"

@.str = private unnamed_addr constant [3 x i8] c"%d\00", align 1
@.str.1 = private unnamed_addr constant [11 x i8] c"%d%d%d%d%d\00", align 1
@.str.2 = private unnamed_addr constant [9 x i8] c"%d%d%d%d\00", align 1
@.str.3 = private unnamed_addr constant [7 x i8] c"%d%d%d\00", align 1
@.str.4 = private unnamed_addr constant [5 x i8] c"%d%d\00", align 1
@.str.5 = private unnamed_addr constant [4 x i8] c"%d%\00", align 1

; Function Attrs: nofree nounwind sspstrong uwtable
define dso_local i32 @main() local_unnamed_addr #0 {
  %1 = alloca i32, align 4
  %2 = bitcast i32* %1 to i8*
  call void @llvm.lifetime.start.p0i8(i64 4, i8* nonnull %2) #3
  %3 = call i32 (i8*, ...) @__isoc99_scanf(i8* getelementptr inbounds ([3 x i8], [3 x i8]* @.str, i64 0, i64 0), i32* nonnull %1)
  %4 = load i32, i32* %1, align 4, !tbaa !5
  %5 = srem i32 %4, 10000
  %6 = sdiv i32 %4, 10000
  %7 = trunc i32 %5 to i16
  %8 = sdiv i16 %7, 1000
  %9 = sext i16 %8 to i32
  %10 = srem i32 %4, 1000
  %11 = trunc i32 %10 to i16
  %12 = sdiv i16 %11, 100
  %13 = sext i16 %12 to i32
  %14 = srem i32 %4, 100
  %15 = trunc i32 %14 to i8
  %16 = sdiv i8 %15, 10
  %17 = sext i8 %16 to i32
  %18 = srem i32 %4, 10
  %19 = add i32 %4, 9999
  %20 = icmp ult i32 %19, 19999
  br i1 %20, label %23, label %21

21:                                               ; preds = %0
  %22 = call i32 (i8*, ...) @printf(i8* nonnull dereferenceable(1) getelementptr inbounds ([11 x i8], [11 x i8]* @.str.1, i64 0, i64 0), i32 %18, i32 %17, i32 %13, i32 %9, i32 %6)
  br label %40

23:                                               ; preds = %0
  %24 = add nsw i32 %5, 999
  %25 = icmp ult i32 %24, 1999
  br i1 %25, label %28, label %26

26:                                               ; preds = %23
  %27 = call i32 (i8*, ...) @printf(i8* nonnull dereferenceable(1) getelementptr inbounds ([9 x i8], [9 x i8]* @.str.2, i64 0, i64 0), i32 %18, i32 %17, i32 %13, i32 %9)
  br label %40

28:                                               ; preds = %23
  %29 = add nsw i32 %10, 99
  %30 = icmp ult i32 %29, 199
  br i1 %30, label %33, label %31

31:                                               ; preds = %28
  %32 = call i32 (i8*, ...) @printf(i8* nonnull dereferenceable(1) getelementptr inbounds ([7 x i8], [7 x i8]* @.str.3, i64 0, i64 0), i32 %18, i32 %17, i32 %13)
  br label %40

33:                                               ; preds = %28
  %34 = add nsw i32 %14, 9
  %35 = icmp ult i32 %34, 19
  br i1 %35, label %38, label %36

36:                                               ; preds = %33
  %37 = call i32 (i8*, ...) @printf(i8* nonnull dereferenceable(1) getelementptr inbounds ([5 x i8], [5 x i8]* @.str.4, i64 0, i64 0), i32 %18, i32 %17)
  br label %40

38:                                               ; preds = %33
  %39 = call i32 (i8*, ...) @printf(i8* nonnull dereferenceable(1) getelementptr inbounds ([4 x i8], [4 x i8]* @.str.5, i64 0, i64 0), i32 %18)
  br label %40

40:                                               ; preds = %26, %36, %38, %31, %21
  call void @llvm.lifetime.end.p0i8(i64 4, i8* nonnull %2) #3
  ret i32 0
}

; Function Attrs: argmemonly mustprogress nofree nosync nounwind willreturn
declare void @llvm.lifetime.start.p0i8(i64 immarg, i8* nocapture) #1

; Function Attrs: nofree nounwind
declare noundef i32 @__isoc99_scanf(i8* nocapture noundef readonly, ...) local_unnamed_addr #2

; Function Attrs: nofree nounwind
declare noundef i32 @printf(i8* nocapture noundef readonly, ...) local_unnamed_addr #2

; Function Attrs: argmemonly mustprogress nofree nosync nounwind willreturn
declare void @llvm.lifetime.end.p0i8(i64 immarg, i8* nocapture) #1


!llvm.module.flags = !{!0, !1, !2, !3}
!llvm.ident = !{!4}

!0 = !{i32 1, !"wchar_size", i32 4}
!1 = !{i32 7, !"PIC Level", i32 2}
!2 = !{i32 7, !"PIE Level", i32 2}
!3 = !{i32 7, !"uwtable", i32 1}
!4 = !{!"clang version 13.0.0"}
!5 = !{!6, !6, i64 0}
!6 = !{!"int", !7, i64 0}
!7 = !{!"omnipotent char", !8, i64 0}
!8 = !{!"Simple C/C++ TBAA"}
